; Function Attrs: mustprogress nounwind uwtable
define void @_ZN19OpenColorIO_v2_5dev7Context15clearStringVarsEv(ptr noundef nonnull readonly align 8 captures(none) dereferenceable(8) %0) local_unnamed_addr #6 align 2 personality ptr @__gxx_personality_v0 {
  %2 = load ptr, ptr %0, align 8, !tbaa !61
  %3 = getelementptr inbounds nuw i8, ptr %2, i64 96
  %4 = getelementptr inbounds nuw i8, ptr %2, i64 112
  %5 = load ptr, ptr %4, align 8, !tbaa !57
  invoke void @_ZNSt8_Rb_treeINSt7__cxx1112basic_stringIcSt11char_traitsIcESaIcEEESt4pairIKS5_S5_ESt10_Select1stIS8_EN19OpenColorIO_v2_5dev9EnvMapKeyIS5_EESaIS8_EE8_M_eraseEPSt13_Rb_tree_nodeIS8_E(ptr noundef nonnull align 8 dereferenceable(48) %3, ptr noundef %5)
          to label %_ZNSt3mapINSt7__cxx1112basic_stringIcSt11char_traitsIcESaIcEEES5_N19OpenColorIO_v2_5dev9EnvMapKeyIS5_EESaISt4pairIKS5_S5_EEE5clearEv.exit unwind label %6

6:                                                ; preds = %1
  %7 = landingpad { ptr, i32 }
          catch ptr null
  %8 = extractvalue { ptr, i32 } %7, 0
  tail call void @__clang_call_terminate(ptr %8) #30
  unreachable

_ZNSt3mapINSt7__cxx1112basic_stringIcSt11char_traitsIcESaIcEEES5_N19OpenColorIO_v2_5dev9EnvMapKeyIS5_EESaISt4pairIKS5_S5_EEE5clearEv.exit: ; preds = %1
  %9 = getelementptr inbounds nuw i8, ptr %2, i64 104
  store ptr null, ptr %4, align 8, !tbaa !57
  %10 = getelementptr inbounds nuw i8, ptr %2, i64 120
  store ptr %9, ptr %10, align 8, !tbaa !58
  %11 = getelementptr inbounds nuw i8, ptr %2, i64 128
  store ptr %9, ptr %11, align 8, !tbaa !59
  %12 = getelementptr inbounds nuw i8, ptr %2, i64 136
  store i64 0, ptr %12, align 8, !tbaa !60
  ret void
}